; Function Attrs: mustprogress uwtable
define void @_ZN6casadi10IdasMemoryC2ERKNS_13IdasInterfaceE(ptr noundef nonnull align 8 dereferenceable(752) %0, ptr noundef nonnull align 8 dereferenceable(2272) %1) unnamed_addr #4 align 2 {
  tail call void @_ZN6casadi14SundialsMemoryC2Ev(ptr noundef nonnull align 8 dereferenceable(716) %0)
  %3 = getelementptr inbounds nuw i8, ptr %0, i64 720
  store ptr %1, ptr %3, align 8, !tbaa !367
  %4 = getelementptr inbounds nuw i8, ptr %0, i64 728
  store ptr null, ptr %4, align 8, !tbaa !232
  %5 = getelementptr inbounds nuw i8, ptr %0, i64 384
  store ptr null, ptr %5, align 8, !tbaa !236
  %6 = getelementptr inbounds nuw i8, ptr %0, i64 408
  store ptr null, ptr %6, align 8, !tbaa !270
  %7 = getelementptr inbounds nuw i8, ptr %0, i64 744
  store double 0x7FF8000000000000, ptr %7, align 8, !tbaa !294
  %8 = getelementptr inbounds nuw i8, ptr %0, i64 696
  store i32 0, ptr %8, align 8, !tbaa !368
  ret void
}